; Function Attrs: mustprogress uwtable
define hidden void @_ZN12seq_rewriter12re_predicateEP4exprP4sort(ptr dead_on_unwind noalias writable writeonly sret(%class.obj_ref) align 8 captures(none) %0, ptr noundef nonnull align 8 dereferenceable(497) %1, ptr noundef %2, ptr noundef %3) local_unnamed_addr #3 align 2 personality ptr @__gxx_personality_v0 {
  %5 = alloca ptr, align 8
  %6 = alloca %class.obj_ref, align 8
  call void @llvm.lifetime.start.p0(i64 16, ptr nonnull %6) #28
  %7 = getelementptr inbounds nuw i8, ptr %1, i64 40
  %8 = load ptr, ptr %7, align 8, !tbaa !335
  %9 = getelementptr inbounds nuw i8, ptr %1, i64 48
  %10 = load i32, ptr %9, align 8, !tbaa !86
  %11 = tail call noundef ptr @_ZN11ast_manager12mk_func_declEiijPK9parameterjPKP4exprP4sort(ptr noundef nonnull align 8 dereferenceable(976) %8, i32 noundef %10, i32 noundef 1, i32 noundef 0, ptr noundef null, i32 noundef 0, ptr noundef null, ptr noundef %3)
  %12 = tail call noundef ptr @_ZN11ast_manager6mk_appEP9func_decljPKP4expr(ptr noundef nonnull align 8 dereferenceable(976) %8, ptr noundef %11, i32 noundef 0, ptr noundef null)
  call void @llvm.lifetime.start.p0(i64 8, ptr nonnull %5)
  store ptr %12, ptr %5, align 8, !tbaa !3
  %13 = getelementptr inbounds nuw i8, ptr %1, i64 64
  %14 = load ptr, ptr %13, align 8, !tbaa !327
  %15 = getelementptr inbounds nuw i8, ptr %1, i64 72
  %16 = load i32, ptr %15, align 8, !tbaa !87
  %17 = call noundef ptr @_ZN11ast_manager6mk_appEiijPKP4expr(ptr noundef nonnull align 8 dereferenceable(976) %14, i32 noundef %16, i32 noundef 15, i32 noundef 1, ptr noundef nonnull %5)
  call void @llvm.lifetime.end.p0(i64 8, ptr nonnull %5)
  %18 = load ptr, ptr %1, align 8, !tbaa !85
  store ptr %17, ptr %6, align 8, !tbaa !11
  %19 = getelementptr inbounds nuw i8, ptr %6, i64 8
  store ptr %18, ptr %19, align 8, !tbaa !12
  %.not.i.i = icmp eq ptr %17, null
  br i1 %.not.i.i, label %_ZN7obj_refI4expr11ast_managerEC2EPS0_RS1_.exit, label %_ZN11ast_manager7inc_refEP3ast.exit.i.i

_ZN11ast_manager7inc_refEP3ast.exit.i.i:          ; preds = %4
  %20 = getelementptr inbounds nuw i8, ptr %17, i64 8
  %21 = load i32, ptr %20, align 4, !tbaa !99
  %22 = add i32 %21, 1
  store i32 %22, ptr %20, align 4, !tbaa !99
  br label %_ZN7obj_refI4expr11ast_managerEC2EPS0_RS1_.exit

_ZN7obj_refI4expr11ast_managerEC2EPS0_RS1_.exit:  ; preds = %4, %_ZN11ast_manager7inc_refEP3ast.exit.i.i
  invoke void @_ZN12seq_rewriter6re_andEP4exprS1_(ptr dead_on_unwind writable sret(%class.obj_ref) align 8 %0, ptr noundef nonnull align 8 dereferenceable(497) %1, ptr noundef %2, ptr noundef %17)
          to label %23 unwind label %33

23:                                               ; preds = %_ZN7obj_refI4expr11ast_managerEC2EPS0_RS1_.exit
  br i1 %.not.i.i, label %_ZN7obj_refI4expr11ast_managerED2Ev.exit, label %24

24:                                               ; preds = %23
  %25 = getelementptr inbounds nuw i8, ptr %17, i64 8
  %26 = load i32, ptr %25, align 4, !tbaa !99
  %27 = add i32 %26, -1
  store i32 %27, ptr %25, align 4, !tbaa !99
  %28 = icmp eq i32 %27, 0
  br i1 %28, label %29, label %_ZN7obj_refI4expr11ast_managerED2Ev.exit

29:                                               ; preds = %24
  invoke void @_ZN11ast_manager11delete_nodeEP3ast(ptr noundef nonnull align 8 dereferenceable(976) %18, ptr noundef nonnull %17)
          to label %_ZN7obj_refI4expr11ast_managerED2Ev.exit unwind label %30

30:                                               ; preds = %29
  %31 = landingpad { ptr, i32 }
          catch ptr null
  %32 = extractvalue { ptr, i32 } %31, 0
  call void @__clang_call_terminate(ptr %32) #29
  unreachable

_ZN7obj_refI4expr11ast_managerED2Ev.exit:         ; preds = %23, %24, %29
  call void @llvm.lifetime.end.p0(i64 16, ptr nonnull %6) #28
  ret void

33:                                               ; preds = %_ZN7obj_refI4expr11ast_managerEC2EPS0_RS1_.exit
  %34 = landingpad { ptr, i32 }
          cleanup
  call void @_ZN7obj_refI4expr11ast_managerED2Ev(ptr noundef nonnull align 8 dereferenceable(16) %6) #28
  call void @llvm.lifetime.end.p0(i64 16, ptr nonnull %6) #28
  resume { ptr, i32 } %34
}